target datalayout = "e-m:e-p270:32:32-p271:32:32-p272:64:64-i64:64-i128:128-f80:128-n8:16:32:64-S128"
target triple = "x86_64-pc-linux-gnu"

%"class.ceres::internal::DenseQR" = type { ptr }
%"class.ceres::internal::CUDADenseQR" = type <{ %"class.ceres::internal::DenseQR", ptr, i64, i64, %"class.ceres::internal::CudaBuffer", %"class.ceres::internal::CudaBuffer", %"class.ceres::internal::CudaBuffer", %"class.ceres::internal::CudaBuffer", %"class.ceres::internal::CudaBuffer.93", i32, [4 x i8] }>
%"class.ceres::internal::CudaBuffer" = type { ptr, i64, ptr }
%"class.ceres::internal::CudaBuffer.93" = type { ptr, i64, ptr }

@_ZTVN5ceres8internal7DenseQRE = hidden unnamed_addr constant { [6 x ptr] } { [6 x ptr] [ptr null, ptr @_ZTIN5ceres8internal7DenseQRE, ptr @_ZN5ceres8internal7DenseQRD1Ev, ptr @_ZN5ceres8internal7DenseQRD0Ev, ptr @__cxa_pure_virtual, ptr @__cxa_pure_virtual] }, align 8

; Function Attrs: mustprogress nounwind uwtable
define hidden void @_ZN5ceres8internal7DenseQRD2Ev(ptr noundef nonnull align 8 dereferenceable(8) %0) unnamed_addr #1 align 2 {
  %2 = alloca ptr, align 8
  store ptr %0, ptr %2, align 8
  ret void
}

; Function Attrs: mustprogress uwtable
define linkonce_odr hidden void @_ZN5ceres8internal10CudaBufferIiEC2EPNS0_11ContextImplEi(ptr noundef nonnull align 8 dereferenceable(24) %0, ptr noundef %1, i32 noundef %2) unnamed_addr #2 comdat align 2 {
  %4 = alloca ptr, align 8
  %5 = alloca ptr, align 8
  %6 = alloca i32, align 4
  store ptr %0, ptr %4, align 8
  store ptr %1, ptr %5, align 8
  store i32 %2, ptr %6, align 4
  %7 = load ptr, ptr %4, align 8
  %8 = getelementptr inbounds %"class.ceres::internal::CudaBuffer.93", ptr %7, i32 0, i32 0
  store ptr null, ptr %8, align 8
  %9 = getelementptr inbounds %"class.ceres::internal::CudaBuffer.93", ptr %7, i32 0, i32 1
  store i64 0, ptr %9, align 8
  %10 = getelementptr inbounds %"class.ceres::internal::CudaBuffer.93", ptr %7, i32 0, i32 2
  %11 = load ptr, ptr %5, align 8
  store ptr %11, ptr %10, align 8
  %12 = load i32, ptr %6, align 4
  %13 = sext i32 %12 to i64
  call void @_ZN5ceres8internal10CudaBufferIiE7ReserveEm(ptr noundef nonnull align 8 dereferenceable(24) %7, i64 noundef %13)
  ret void
}

; Function Attrs: mustprogress nounwind uwtable
define linkonce_odr hidden void @_ZN5ceres8internal10CudaBufferIdEC2EPNS0_11ContextImplE(ptr noundef nonnull align 8 dereferenceable(24) %0, ptr noundef %1) unnamed_addr #1 comdat align 2 {
  %3 = alloca ptr, align 8
  %4 = alloca ptr, align 8
  store ptr %0, ptr %3, align 8
  store ptr %1, ptr %4, align 8
  %5 = load ptr, ptr %3, align 8
  %6 = getelementptr inbounds %"class.ceres::internal::CudaBuffer", ptr %5, i32 0, i32 0
  store ptr null, ptr %6, align 8
  %7 = getelementptr inbounds %"class.ceres::internal::CudaBuffer", ptr %5, i32 0, i32 1
  store i64 0, ptr %7, align 8
  %8 = getelementptr inbounds %"class.ceres::internal::CudaBuffer", ptr %5, i32 0, i32 2
  %9 = load ptr, ptr %4, align 8
  store ptr %9, ptr %8, align 8
  ret void
}

; Function Attrs: mustprogress nounwind uwtable
define linkonce_odr hidden void @_ZN5ceres8internal7DenseQRC2Ev(ptr noundef nonnull align 8 dereferenceable(8) %0) unnamed_addr #1 comdat align 2 {
  %2 = alloca ptr, align 8
  store ptr %0, ptr %2, align 8
  %3 = load ptr, ptr %2, align 8
  store ptr getelementptr inbounds ({ [6 x ptr] }, ptr @_ZTVN5ceres8internal7DenseQRE, i32 0, i32 0, i32 2), ptr %3, align 8
  ret void
}

; Function Attrs: mustprogress uwtable
define hidden void @_ZN5ceres8internal11CUDADenseQRC2EPNS0_11ContextImplE(ptr noundef nonnull align 8 dereferenceable(160) %0, ptr noundef %1) unnamed_addr #2 align 2 personality ptr @__gxx_personality_v0 {
  %3 = alloca ptr, align 8
  %4 = alloca ptr, align 8
  %5 = alloca ptr, align 8
  %6 = alloca i32, align 4
  store ptr %0, ptr %3, align 8
  store ptr %1, ptr %4, align 8
  %7 = load ptr, ptr %3, align 8
  call void @_ZN5ceres8internal7DenseQRC2Ev(ptr noundef nonnull align 8 dereferenceable(8) %7) #15
  store ptr getelementptr inbounds ({ [6 x ptr] }, ptr @_ZTVN5ceres8internal11CUDADenseQRE, i32 0, i32 0, i32 2), ptr %7, align 8
  %8 = getelementptr inbounds %"class.ceres::internal::CUDADenseQR", ptr %7, i32 0, i32 1
  %9 = load ptr, ptr %4, align 8
  store ptr %9, ptr %8, align 8
  %10 = getelementptr inbounds %"class.ceres::internal::CUDADenseQR", ptr %7, i32 0, i32 2
  store i64 0, ptr %10, align 8
  %11 = getelementptr inbounds %"class.ceres::internal::CUDADenseQR", ptr %7, i32 0, i32 3
  store i64 0, ptr %11, align 8
  %12 = getelementptr inbounds %"class.ceres::internal::CUDADenseQR", ptr %7, i32 0, i32 4
  %13 = load ptr, ptr %4, align 8
  invoke void @_ZN5ceres8internal10CudaBufferIdEC2EPNS0_11ContextImplE(ptr noundef nonnull align 8 dereferenceable(24) %12, ptr noundef %13)
          to label %14 unwind label %28

14:                                               ; preds = %2
  %15 = getelementptr inbounds %"class.ceres::internal::CUDADenseQR", ptr %7, i32 0, i32 5
  %16 = load ptr, ptr %4, align 8
  invoke void @_ZN5ceres8internal10CudaBufferIdEC2EPNS0_11ContextImplE(ptr noundef nonnull align 8 dereferenceable(24) %15, ptr noundef %16)
          to label %17 unwind label %32

17:                                               ; preds = %14
  %18 = getelementptr inbounds %"class.ceres::internal::CUDADenseQR", ptr %7, i32 0, i32 6
  %19 = load ptr, ptr %4, align 8
  invoke void @_ZN5ceres8internal10CudaBufferIdEC2EPNS0_11ContextImplE(ptr noundef nonnull align 8 dereferenceable(24) %18, ptr noundef %19)
          to label %20 unwind label %36

20:                                               ; preds = %17
  %21 = getelementptr inbounds %"class.ceres::internal::CUDADenseQR", ptr %7, i32 0, i32 7
  %22 = load ptr, ptr %4, align 8
  invoke void @_ZN5ceres8internal10CudaBufferIdEC2EPNS0_11ContextImplE(ptr noundef nonnull align 8 dereferenceable(24) %21, ptr noundef %22)
          to label %23 unwind label %40

23:                                               ; preds = %20
  %24 = getelementptr inbounds %"class.ceres::internal::CUDADenseQR", ptr %7, i32 0, i32 8
  %25 = load ptr, ptr %4, align 8
  invoke void @_ZN5ceres8internal10CudaBufferIiEC2EPNS0_11ContextImplEi(ptr noundef nonnull align 8 dereferenceable(24) %24, ptr noundef %25, i32 noundef 1)
          to label %26 unwind label %44

26:                                               ; preds = %23
  %27 = getelementptr inbounds %"class.ceres::internal::CUDADenseQR", ptr %7, i32 0, i32 9
  store i32 3, ptr %27, align 8
  ret void

28:                                               ; preds = %2
  %29 = landingpad { ptr, i32 }
          cleanup
  %30 = extractvalue { ptr, i32 } %29, 0
  store ptr %30, ptr %5, align 8
  %31 = extractvalue { ptr, i32 } %29, 1
  store i32 %31, ptr %6, align 4
  br label %51

32:                                               ; preds = %14
  %33 = landingpad { ptr, i32 }
          cleanup
  %34 = extractvalue { ptr, i32 } %33, 0
  store ptr %34, ptr %5, align 8
  %35 = extractvalue { ptr, i32 } %33, 1
  store i32 %35, ptr %6, align 4
  br label %50

36:                                               ; preds = %17
  %37 = landingpad { ptr, i32 }
          cleanup
  %38 = extractvalue { ptr, i32 } %37, 0
  store ptr %38, ptr %5, align 8
  %39 = extractvalue { ptr, i32 } %37, 1
  store i32 %39, ptr %6, align 4
  br label %49

40:                                               ; preds = %20
  %41 = landingpad { ptr, i32 }
          cleanup
  %42 = extractvalue { ptr, i32 } %41, 0
  store ptr %42, ptr %5, align 8
  %43 = extractvalue { ptr, i32 } %41, 1
  store i32 %43, ptr %6, align 4
  br label %48

44:                                               ; preds = %23
  %45 = landingpad { ptr, i32 }
          cleanup
  %46 = extractvalue { ptr, i32 } %45, 0
  store ptr %46, ptr %5, align 8
  %47 = extractvalue { ptr, i32 } %45, 1
  store i32 %47, ptr %6, align 4
  call void @_ZN5ceres8internal10CudaBufferIdED2Ev(ptr noundef nonnull align 8 dereferenceable(24) %21) #15
  br label %48

48:                                               ; preds = %44, %40
  call void @_ZN5ceres8internal10CudaBufferIdED2Ev(ptr noundef nonnull align 8 dereferenceable(24) %18) #15
  br label %49

49:                                               ; preds = %48, %36
  call void @_ZN5ceres8internal10CudaBufferIdED2Ev(ptr noundef nonnull align 8 dereferenceable(24) %15) #15
  br label %50

50:                                               ; preds = %49, %32
  call void @_ZN5ceres8internal10CudaBufferIdED2Ev(ptr noundef nonnull align 8 dereferenceable(24) %12) #15
  br label %51

51:                                               ; preds = %50, %28
  call void @_ZN5ceres8internal7DenseQRD2Ev(ptr noundef nonnull align 8 dereferenceable(8) %7) #15
  br label %52

52:                                               ; preds = %51
  %53 = load ptr, ptr %5, align 8
  %54 = load i32, ptr %6, align 4
  %55 = insertvalue { ptr, i32 } poison, ptr %53, 0
  %56 = insertvalue { ptr, i32 } %55, i32 %54, 1
  resume { ptr, i32 } %56
}