; Function Attrs: mustprogress uwtable
define hidden void @_ZN5ceres8internal11CUDADenseQRC2EPNS0_11ContextImplE(ptr noundef nonnull align 8 dereferenceable(160) %0, ptr noundef %1) unnamed_addr #3 align 2 personality ptr @__gxx_personality_v0 {
  store ptr getelementptr inbounds ({ [6 x ptr] }, ptr @_ZTVN5ceres8internal11CUDADenseQRE, i64 0, i32 0, i64 2), ptr %0, align 8
  %3 = getelementptr inbounds i8, ptr %0, i64 8
  store ptr %1, ptr %3, align 8
  %4 = getelementptr inbounds i8, ptr %0, i64 16
  %5 = getelementptr inbounds i8, ptr %0, i64 48
  tail call void @llvm.memset.p0.i64(ptr noundef nonnull align 8 dereferenceable(32) %4, i8 0, i64 32, i1 false)
  store ptr %1, ptr %5, align 8
  %6 = getelementptr inbounds i8, ptr %0, i64 56
  %7 = getelementptr inbounds i8, ptr %0, i64 72
  tail call void @llvm.memset.p0.i64(ptr noundef nonnull align 8 dereferenceable(16) %6, i8 0, i64 16, i1 false)
  store ptr %1, ptr %7, align 8
  %8 = getelementptr inbounds i8, ptr %0, i64 80
  %9 = getelementptr inbounds i8, ptr %0, i64 96
  tail call void @llvm.memset.p0.i64(ptr noundef nonnull align 8 dereferenceable(16) %8, i8 0, i64 16, i1 false)
  store ptr %1, ptr %9, align 8
  %10 = getelementptr inbounds i8, ptr %0, i64 104
  %11 = getelementptr inbounds i8, ptr %0, i64 120
  tail call void @llvm.memset.p0.i64(ptr noundef nonnull align 8 dereferenceable(16) %10, i8 0, i64 16, i1 false)
  store ptr %1, ptr %11, align 8
  %12 = getelementptr inbounds i8, ptr %0, i64 128
  %13 = getelementptr inbounds i8, ptr %0, i64 144
  tail call void @llvm.memset.p0.i64(ptr noundef nonnull align 8 dereferenceable(16) %12, i8 0, i64 16, i1 false)
  store ptr %1, ptr %13, align 8
  invoke void @_ZN5ceres8internal10CudaBufferIiE7ReserveEm(ptr noundef nonnull align 8 dereferenceable(24) %12, i64 noundef 1)
          to label %_ZN5ceres8internal10CudaBufferIiEC2EPNS0_11ContextImplEi.exit unwind label %15

_ZN5ceres8internal10CudaBufferIiEC2EPNS0_11ContextImplEi.exit: ; preds = %2
  %14 = getelementptr inbounds i8, ptr %0, i64 152
  store i32 3, ptr %14, align 8
  ret void

15:                                               ; preds = %2
  %16 = landingpad { ptr, i32 }
          cleanup
  %17 = getelementptr inbounds i8, ptr %0, i64 32
  tail call void @_ZN5ceres8internal10CudaBufferIdED2Ev(ptr noundef nonnull align 8 dereferenceable(24) %10) #25
  tail call void @_ZN5ceres8internal10CudaBufferIdED2Ev(ptr noundef nonnull align 8 dereferenceable(24) %8) #25
  tail call void @_ZN5ceres8internal10CudaBufferIdED2Ev(ptr noundef nonnull align 8 dereferenceable(24) %6) #25
  tail call void @_ZN5ceres8internal10CudaBufferIdED2Ev(ptr noundef nonnull align 8 dereferenceable(24) %17) #25
  resume { ptr, i32 } %16
}